
_testp:     file format elf32-i386


Disassembly of section .text:

00000000 <main>:
    int ttime;
    int tatime;
    int awtime;
};

int main() {
   0:	8d 4c 24 04          	lea    0x4(%esp),%ecx
   4:	83 e4 f0             	and    $0xfffffff0,%esp
   7:	ff 71 fc             	push   -0x4(%ecx)
   a:	55                   	push   %ebp
   b:	89 e5                	mov    %esp,%ebp
   d:	56                   	push   %esi
   e:	53                   	push   %ebx
            printf(1, "exec %s failed for the process\n", commands[i]);
            exit();
        }
	else 
	{
            if (procstat(cpid, &pstat_info) < 0) 
   f:	8d 75 d4             	lea    -0x2c(%ebp),%esi
    for (int i = 0; i < num_commands; i++) 
  12:	31 db                	xor    %ebx,%ebx
int main() {
  14:	51                   	push   %ecx
  15:	83 ec 3c             	sub    $0x3c,%esp
    char *commands[] = {"writefile", "head"};
  18:	c7 45 c4 08 08 00 00 	movl   $0x808,-0x3c(%ebp)
  1f:	c7 45 c8 12 08 00 00 	movl   $0x812,-0x38(%ebp)
    char *arguments[] = {"input.txt", "file.txt"};
  26:	c7 45 cc 17 08 00 00 	movl   $0x817,-0x34(%ebp)
  2d:	c7 45 d0 21 08 00 00 	movl   $0x821,-0x30(%ebp)
        cpid = fork();
  34:	e8 32 03 00 00       	call   36b <fork>
        if (cpid < 0) 
  39:	85 c0                	test   %eax,%eax
  3b:	78 7d                	js     ba <main+0xba>
        if (cpid == 0) 
  3d:	0f 84 8a 00 00 00    	je     cd <main+0xcd>
            if (procstat(cpid, &pstat_info) < 0) 
  43:	83 ec 08             	sub    $0x8,%esp
  46:	56                   	push   %esi
  47:	50                   	push   %eax
  48:	e8 ce 03 00 00       	call   41b <procstat>
  4d:	83 c4 10             	add    $0x10,%esp
  50:	85 c0                	test   %eax,%eax
  52:	0f 88 ab 00 00 00    	js     103 <main+0x103>
                exit();
            }
        }

	//printing the statistics of the process.
printf(1, "\nProcess statistics for '%s %s':\n", commands[i], arguments[i]);
  58:	ff 74 9d cc          	push   -0x34(%ebp,%ebx,4)
  5c:	ff 74 9d c4          	push   -0x3c(%ebp,%ebx,4)
  60:	68 ac 08 00 00       	push   $0x8ac
  65:	6a 01                	push   $0x1
  67:	e8 74 04 00 00       	call   4e0 <printf>
        //printf(1, "\nProcess statistics for '%s':\n", arguments[i]);
        printf(1, "  Creation time: %d\n", pstat_info.ctime);
  6c:	83 c4 0c             	add    $0xc,%esp
  6f:	ff 75 d4             	push   -0x2c(%ebp)
  72:	68 52 08 00 00       	push   $0x852
  77:	6a 01                	push   $0x1
  79:	e8 62 04 00 00       	call   4e0 <printf>
        printf(1, "  End time: %d\n", pstat_info.etime);
  7e:	83 c4 0c             	add    $0xc,%esp
  81:	ff 75 d8             	push   -0x28(%ebp)
  84:	68 67 08 00 00       	push   $0x867
  89:	6a 01                	push   $0x1
  8b:	e8 50 04 00 00       	call   4e0 <printf>
        printf(1, "  Total time: %d\n\n", pstat_info.ttime);
  90:	83 c4 0c             	add    $0xc,%esp
  93:	ff 75 dc             	push   -0x24(%ebp)
  96:	68 77 08 00 00       	push   $0x877
  9b:	6a 01                	push   $0x1
  9d:	e8 3e 04 00 00       	call   4e0 <printf>
    for (int i = 0; i < num_commands; i++) 
  a2:	83 c4 10             	add    $0x10,%esp
  a5:	83 fb 01             	cmp    $0x1,%ebx
  a8:	75 06                	jne    b0 <main+0xb0>
    }

    exit();
  aa:	e8 c4 02 00 00       	call   373 <exit>
  af:	90                   	nop
  b0:	bb 01 00 00 00       	mov    $0x1,%ebx
  b5:	e9 7a ff ff ff       	jmp    34 <main+0x34>
            printf(1, "fork failed to create\n");
  ba:	51                   	push   %ecx
  bb:	51                   	push   %ecx
  bc:	68 2a 08 00 00       	push   $0x82a
  c1:	6a 01                	push   $0x1
  c3:	e8 18 04 00 00       	call   4e0 <printf>
            exit();
  c8:	e8 a6 02 00 00       	call   373 <exit>
            char *args[] = {commands[i], arguments[i], 0};
  cd:	8b 44 9d cc          	mov    -0x34(%ebp,%ebx,4),%eax
  d1:	8b 74 9d c4          	mov    -0x3c(%ebp,%ebx,4),%esi
            exec(args[0], args);
  d5:	52                   	push   %edx
  d6:	52                   	push   %edx
            char *args[] = {commands[i], arguments[i], 0};
  d7:	89 45 d8             	mov    %eax,-0x28(%ebp)
            exec(args[0], args);
  da:	8d 45 d4             	lea    -0x2c(%ebp),%eax
  dd:	50                   	push   %eax
  de:	56                   	push   %esi
            char *args[] = {commands[i], arguments[i], 0};
  df:	89 75 d4             	mov    %esi,-0x2c(%ebp)
  e2:	c7 45 dc 00 00 00 00 	movl   $0x0,-0x24(%ebp)
            exec(args[0], args);
  e9:	e8 bd 02 00 00       	call   3ab <exec>
            printf(1, "exec %s failed for the process\n", commands[i]);
  ee:	83 c4 0c             	add    $0xc,%esp
  f1:	56                   	push   %esi
  f2:	68 8c 08 00 00       	push   $0x88c
  f7:	6a 01                	push   $0x1
  f9:	e8 e2 03 00 00       	call   4e0 <printf>
            exit();
  fe:	e8 70 02 00 00       	call   373 <exit>
                printf(1, "procstat failed\n");
 103:	50                   	push   %eax
 104:	50                   	push   %eax
 105:	68 41 08 00 00       	push   $0x841
 10a:	6a 01                	push   $0x1
 10c:	e8 cf 03 00 00       	call   4e0 <printf>
                exit();
 111:	e8 5d 02 00 00       	call   373 <exit>
 116:	66 90                	xchg   %ax,%ax
 118:	66 90                	xchg   %ax,%ax
 11a:	66 90                	xchg   %ax,%ax
 11c:	66 90                	xchg   %ax,%ax
 11e:	66 90                	xchg   %ax,%ax

00000120 <strcpy>:
 120:	55                   	push   %ebp
 121:	31 c0                	xor    %eax,%eax
 123:	89 e5                	mov    %esp,%ebp
 125:	53                   	push   %ebx
 126:	8b 4d 08             	mov    0x8(%ebp),%ecx
 129:	8b 5d 0c             	mov    0xc(%ebp),%ebx
 12c:	8d 74 26 00          	lea    0x0(%esi,%eiz,1),%esi
 130:	0f b6 14 03          	movzbl (%ebx,%eax,1),%edx
 134:	88 14 01             	mov    %dl,(%ecx,%eax,1)
 137:	83 c0 01             	add    $0x1,%eax
 13a:	84 d2                	test   %dl,%dl
 13c:	75 f2                	jne    130 <strcpy+0x10>
 13e:	8b 5d fc             	mov    -0x4(%ebp),%ebx
 141:	89 c8                	mov    %ecx,%eax
 143:	c9                   	leave  
 144:	c3                   	ret    
 145:	8d b4 26 00 00 00 00 	lea    0x0(%esi,%eiz,1),%esi
 14c:	8d 74 26 00          	lea    0x0(%esi,%eiz,1),%esi

00000150 <strcmp>:
 150:	55                   	push   %ebp
 151:	89 e5                	mov    %esp,%ebp
 153:	53                   	push   %ebx
 154:	8b 55 08             	mov    0x8(%ebp),%edx
 157:	8b 4d 0c             	mov    0xc(%ebp),%ecx
 15a:	0f b6 02             	movzbl (%edx),%eax
 15d:	84 c0                	test   %al,%al
 15f:	75 17                	jne    178 <strcmp+0x28>
 161:	eb 3a                	jmp    19d <strcmp+0x4d>
 163:	8d 74 26 00          	lea    0x0(%esi,%eiz,1),%esi
 167:	90                   	nop
 168:	0f b6 42 01          	movzbl 0x1(%edx),%eax
 16c:	83 c2 01             	add    $0x1,%edx
 16f:	8d 59 01             	lea    0x1(%ecx),%ebx
 172:	84 c0                	test   %al,%al
 174:	74 1a                	je     190 <strcmp+0x40>
 176:	89 d9                	mov    %ebx,%ecx
 178:	0f b6 19             	movzbl (%ecx),%ebx
 17b:	38 c3                	cmp    %al,%bl
 17d:	74 e9                	je     168 <strcmp+0x18>
 17f:	29 d8                	sub    %ebx,%eax
 181:	8b 5d fc             	mov    -0x4(%ebp),%ebx
 184:	c9                   	leave  
 185:	c3                   	ret    
 186:	8d b4 26 00 00 00 00 	lea    0x0(%esi,%eiz,1),%esi
 18d:	8d 76 00             	lea    0x0(%esi),%esi
 190:	0f b6 59 01          	movzbl 0x1(%ecx),%ebx
 194:	31 c0                	xor    %eax,%eax
 196:	29 d8                	sub    %ebx,%eax
 198:	8b 5d fc             	mov    -0x4(%ebp),%ebx
 19b:	c9                   	leave  
 19c:	c3                   	ret    
 19d:	0f b6 19             	movzbl (%ecx),%ebx
 1a0:	31 c0                	xor    %eax,%eax
 1a2:	eb db                	jmp    17f <strcmp+0x2f>
 1a4:	8d b4 26 00 00 00 00 	lea    0x0(%esi,%eiz,1),%esi
 1ab:	8d 74 26 00          	lea    0x0(%esi,%eiz,1),%esi
 1af:	90                   	nop

000001b0 <strlen>:
 1b0:	55                   	push   %ebp
 1b1:	89 e5                	mov    %esp,%ebp
 1b3:	8b 55 08             	mov    0x8(%ebp),%edx
 1b6:	80 3a 00             	cmpb   $0x0,(%edx)
 1b9:	74 15                	je     1d0 <strlen+0x20>
 1bb:	31 c0                	xor    %eax,%eax
 1bd:	8d 76 00             	lea    0x0(%esi),%esi
 1c0:	83 c0 01             	add    $0x1,%eax
 1c3:	80 3c 02 00          	cmpb   $0x0,(%edx,%eax,1)
 1c7:	89 c1                	mov    %eax,%ecx
 1c9:	75 f5                	jne    1c0 <strlen+0x10>
 1cb:	89 c8                	mov    %ecx,%eax
 1cd:	5d                   	pop    %ebp
 1ce:	c3                   	ret    
 1cf:	90                   	nop
 1d0:	31 c9                	xor    %ecx,%ecx
 1d2:	5d                   	pop    %ebp
 1d3:	89 c8                	mov    %ecx,%eax
 1d5:	c3                   	ret    
 1d6:	8d b4 26 00 00 00 00 	lea    0x0(%esi,%eiz,1),%esi
 1dd:	8d 76 00             	lea    0x0(%esi),%esi

000001e0 <memset>:
 1e0:	55                   	push   %ebp
 1e1:	89 e5                	mov    %esp,%ebp
 1e3:	57                   	push   %edi
 1e4:	8b 55 08             	mov    0x8(%ebp),%edx
 1e7:	8b 4d 10             	mov    0x10(%ebp),%ecx
 1ea:	8b 45 0c             	mov    0xc(%ebp),%eax
 1ed:	89 d7                	mov    %edx,%edi
 1ef:	fc                   	cld    
 1f0:	f3 aa                	rep stos %al,%es:(%edi)
 1f2:	8b 7d fc             	mov    -0x4(%ebp),%edi
 1f5:	89 d0                	mov    %edx,%eax
 1f7:	c9                   	leave  
 1f8:	c3                   	ret    
 1f9:	8d b4 26 00 00 00 00 	lea    0x0(%esi,%eiz,1),%esi

00000200 <strchr>:
 200:	55                   	push   %ebp
 201:	89 e5                	mov    %esp,%ebp
 203:	8b 45 08             	mov    0x8(%ebp),%eax
 206:	0f b6 4d 0c          	movzbl 0xc(%ebp),%ecx
 20a:	0f b6 10             	movzbl (%eax),%edx
 20d:	84 d2                	test   %dl,%dl
 20f:	75 12                	jne    223 <strchr+0x23>
 211:	eb 1d                	jmp    230 <strchr+0x30>
 213:	8d 74 26 00          	lea    0x0(%esi,%eiz,1),%esi
 217:	90                   	nop
 218:	0f b6 50 01          	movzbl 0x1(%eax),%edx
 21c:	83 c0 01             	add    $0x1,%eax
 21f:	84 d2                	test   %dl,%dl
 221:	74 0d                	je     230 <strchr+0x30>
 223:	38 d1                	cmp    %dl,%cl
 225:	75 f1                	jne    218 <strchr+0x18>
 227:	5d                   	pop    %ebp
 228:	c3                   	ret    
 229:	8d b4 26 00 00 00 00 	lea    0x0(%esi,%eiz,1),%esi
 230:	31 c0                	xor    %eax,%eax
 232:	5d                   	pop    %ebp
 233:	c3                   	ret    
 234:	8d b4 26 00 00 00 00 	lea    0x0(%esi,%eiz,1),%esi
 23b:	8d 74 26 00          	lea    0x0(%esi,%eiz,1),%esi
 23f:	90                   	nop

00000240 <gets>:
 240:	55                   	push   %ebp
 241:	89 e5                	mov    %esp,%ebp
 243:	57                   	push   %edi
 244:	56                   	push   %esi
 245:	8d 7d e7             	lea    -0x19(%ebp),%edi
 248:	53                   	push   %ebx
 249:	31 db                	xor    %ebx,%ebx
 24b:	83 ec 1c             	sub    $0x1c,%esp
 24e:	eb 27                	jmp    277 <gets+0x37>
 250:	83 ec 04             	sub    $0x4,%esp
 253:	6a 01                	push   $0x1
 255:	57                   	push   %edi
 256:	6a 00                	push   $0x0
 258:	e8 2e 01 00 00       	call   38b <read>
 25d:	83 c4 10             	add    $0x10,%esp
 260:	85 c0                	test   %eax,%eax
 262:	7e 1d                	jle    281 <gets+0x41>
 264:	0f b6 45 e7          	movzbl -0x19(%ebp),%eax
 268:	8b 55 08             	mov    0x8(%ebp),%edx
 26b:	88 44 1a ff          	mov    %al,-0x1(%edx,%ebx,1)
 26f:	3c 0a                	cmp    $0xa,%al
 271:	74 1d                	je     290 <gets+0x50>
 273:	3c 0d                	cmp    $0xd,%al
 275:	74 19                	je     290 <gets+0x50>
 277:	89 de                	mov    %ebx,%esi
 279:	83 c3 01             	add    $0x1,%ebx
 27c:	3b 5d 0c             	cmp    0xc(%ebp),%ebx
 27f:	7c cf                	jl     250 <gets+0x10>
 281:	8b 45 08             	mov    0x8(%ebp),%eax
 284:	c6 04 30 00          	movb   $0x0,(%eax,%esi,1)
 288:	8d 65 f4             	lea    -0xc(%ebp),%esp
 28b:	5b                   	pop    %ebx
 28c:	5e                   	pop    %esi
 28d:	5f                   	pop    %edi
 28e:	5d                   	pop    %ebp
 28f:	c3                   	ret    
 290:	8b 45 08             	mov    0x8(%ebp),%eax
 293:	89 de                	mov    %ebx,%esi
 295:	c6 04 30 00          	movb   $0x0,(%eax,%esi,1)
 299:	8d 65 f4             	lea    -0xc(%ebp),%esp
 29c:	5b                   	pop    %ebx
 29d:	5e                   	pop    %esi
 29e:	5f                   	pop    %edi
 29f:	5d                   	pop    %ebp
 2a0:	c3                   	ret    
 2a1:	8d b4 26 00 00 00 00 	lea    0x0(%esi,%eiz,1),%esi
 2a8:	8d b4 26 00 00 00 00 	lea    0x0(%esi,%eiz,1),%esi
 2af:	90                   	nop

000002b0 <stat>:
 2b0:	55                   	push   %ebp
 2b1:	89 e5                	mov    %esp,%ebp
 2b3:	56                   	push   %esi
 2b4:	53                   	push   %ebx
 2b5:	83 ec 08             	sub    $0x8,%esp
 2b8:	6a 00                	push   $0x0
 2ba:	ff 75 08             	push   0x8(%ebp)
 2bd:	e8 f1 00 00 00       	call   3b3 <open>
 2c2:	83 c4 10             	add    $0x10,%esp
 2c5:	85 c0                	test   %eax,%eax
 2c7:	78 27                	js     2f0 <stat+0x40>
 2c9:	83 ec 08             	sub    $0x8,%esp
 2cc:	ff 75 0c             	push   0xc(%ebp)
 2cf:	89 c3                	mov    %eax,%ebx
 2d1:	50                   	push   %eax
 2d2:	e8 f4 00 00 00       	call   3cb <fstat>
 2d7:	89 1c 24             	mov    %ebx,(%esp)
 2da:	89 c6                	mov    %eax,%esi
 2dc:	e8 ba 00 00 00       	call   39b <close>
 2e1:	83 c4 10             	add    $0x10,%esp
 2e4:	8d 65 f8             	lea    -0x8(%ebp),%esp
 2e7:	89 f0                	mov    %esi,%eax
 2e9:	5b                   	pop    %ebx
 2ea:	5e                   	pop    %esi
 2eb:	5d                   	pop    %ebp
 2ec:	c3                   	ret    
 2ed:	8d 76 00             	lea    0x0(%esi),%esi
 2f0:	be ff ff ff ff       	mov    $0xffffffff,%esi
 2f5:	eb ed                	jmp    2e4 <stat+0x34>
 2f7:	8d b4 26 00 00 00 00 	lea    0x0(%esi,%eiz,1),%esi
 2fe:	66 90                	xchg   %ax,%ax

00000300 <atoi>:
 300:	55                   	push   %ebp
 301:	89 e5                	mov    %esp,%ebp
 303:	53                   	push   %ebx
 304:	8b 55 08             	mov    0x8(%ebp),%edx
 307:	0f be 02             	movsbl (%edx),%eax
 30a:	8d 48 d0             	lea    -0x30(%eax),%ecx
 30d:	80 f9 09             	cmp    $0x9,%cl
 310:	b9 00 00 00 00       	mov    $0x0,%ecx
 315:	77 1e                	ja     335 <atoi+0x35>
 317:	8d b4 26 00 00 00 00 	lea    0x0(%esi,%eiz,1),%esi
 31e:	66 90                	xchg   %ax,%ax
 320:	83 c2 01             	add    $0x1,%edx
 323:	8d 0c 89             	lea    (%ecx,%ecx,4),%ecx
 326:	8d 4c 48 d0          	lea    -0x30(%eax,%ecx,2),%ecx
 32a:	0f be 02             	movsbl (%edx),%eax
 32d:	8d 58 d0             	lea    -0x30(%eax),%ebx
 330:	80 fb 09             	cmp    $0x9,%bl
 333:	76 eb                	jbe    320 <atoi+0x20>
 335:	8b 5d fc             	mov    -0x4(%ebp),%ebx
 338:	89 c8                	mov    %ecx,%eax
 33a:	c9                   	leave  
 33b:	c3                   	ret    
 33c:	8d 74 26 00          	lea    0x0(%esi,%eiz,1),%esi

00000340 <memmove>:
 340:	55                   	push   %ebp
 341:	89 e5                	mov    %esp,%ebp
 343:	57                   	push   %edi
 344:	8b 45 10             	mov    0x10(%ebp),%eax
 347:	8b 55 08             	mov    0x8(%ebp),%edx
 34a:	56                   	push   %esi
 34b:	8b 75 0c             	mov    0xc(%ebp),%esi
 34e:	85 c0                	test   %eax,%eax
 350:	7e 13                	jle    365 <memmove+0x25>
 352:	01 d0                	add    %edx,%eax
 354:	89 d7                	mov    %edx,%edi
 356:	8d b4 26 00 00 00 00 	lea    0x0(%esi,%eiz,1),%esi
 35d:	8d 76 00             	lea    0x0(%esi),%esi
 360:	a4                   	movsb  %ds:(%esi),%es:(%edi)
 361:	39 f8                	cmp    %edi,%eax
 363:	75 fb                	jne    360 <memmove+0x20>
 365:	5e                   	pop    %esi
 366:	89 d0                	mov    %edx,%eax
 368:	5f                   	pop    %edi
 369:	5d                   	pop    %ebp
 36a:	c3                   	ret    

0000036b <fork>:
 36b:	b8 01 00 00 00       	mov    $0x1,%eax
 370:	cd 40                	int    $0x40
 372:	c3                   	ret    

00000373 <exit>:
 373:	b8 02 00 00 00       	mov    $0x2,%eax
 378:	cd 40                	int    $0x40
 37a:	c3                   	ret    

0000037b <wait>:
 37b:	b8 03 00 00 00       	mov    $0x3,%eax
 380:	cd 40                	int    $0x40
 382:	c3                   	ret    

00000383 <pipe>:
 383:	b8 04 00 00 00       	mov    $0x4,%eax
 388:	cd 40                	int    $0x40
 38a:	c3                   	ret    

0000038b <read>:
 38b:	b8 05 00 00 00       	mov    $0x5,%eax
 390:	cd 40                	int    $0x40
 392:	c3                   	ret    

00000393 <write>:
 393:	b8 10 00 00 00       	mov    $0x10,%eax
 398:	cd 40                	int    $0x40
 39a:	c3                   	ret    

0000039b <close>:
 39b:	b8 15 00 00 00       	mov    $0x15,%eax
 3a0:	cd 40                	int    $0x40
 3a2:	c3                   	ret    

000003a3 <kill>:
 3a3:	b8 06 00 00 00       	mov    $0x6,%eax
 3a8:	cd 40                	int    $0x40
 3aa:	c3                   	ret    

000003ab <exec>:
 3ab:	b8 07 00 00 00       	mov    $0x7,%eax
 3b0:	cd 40                	int    $0x40
 3b2:	c3                   	ret    

000003b3 <open>:
 3b3:	b8 0f 00 00 00       	mov    $0xf,%eax
 3b8:	cd 40                	int    $0x40
 3ba:	c3                   	ret    

000003bb <mknod>:
 3bb:	b8 11 00 00 00       	mov    $0x11,%eax
 3c0:	cd 40                	int    $0x40
 3c2:	c3                   	ret    

000003c3 <unlink>:
 3c3:	b8 12 00 00 00       	mov    $0x12,%eax
 3c8:	cd 40                	int    $0x40
 3ca:	c3                   	ret    

000003cb <fstat>:
 3cb:	b8 08 00 00 00       	mov    $0x8,%eax
 3d0:	cd 40                	int    $0x40
 3d2:	c3                   	ret    

000003d3 <link>:
 3d3:	b8 13 00 00 00       	mov    $0x13,%eax
 3d8:	cd 40                	int    $0x40
 3da:	c3                   	ret    

000003db <mkdir>:
 3db:	b8 14 00 00 00       	mov    $0x14,%eax
 3e0:	cd 40                	int    $0x40
 3e2:	c3                   	ret    

000003e3 <chdir>:
 3e3:	b8 09 00 00 00       	mov    $0x9,%eax
 3e8:	cd 40                	int    $0x40
 3ea:	c3                   	ret    

000003eb <dup>:
 3eb:	b8 0a 00 00 00       	mov    $0xa,%eax
 3f0:	cd 40                	int    $0x40
 3f2:	c3                   	ret    

000003f3 <getpid>:
 3f3:	b8 0b 00 00 00       	mov    $0xb,%eax
 3f8:	cd 40                	int    $0x40
 3fa:	c3                   	ret    

000003fb <sbrk>:
 3fb:	b8 0c 00 00 00       	mov    $0xc,%eax
 400:	cd 40                	int    $0x40
 402:	c3                   	ret    

00000403 <sleep>:
 403:	b8 0d 00 00 00       	mov    $0xd,%eax
 408:	cd 40                	int    $0x40
 40a:	c3                   	ret    

0000040b <uptime>:
 40b:	b8 0e 00 00 00       	mov    $0xe,%eax
 410:	cd 40                	int    $0x40
 412:	c3                   	ret    

00000413 <ps>:
 413:	b8 16 00 00 00       	mov    $0x16,%eax
 418:	cd 40                	int    $0x40
 41a:	c3                   	ret    

0000041b <procstat>:
 41b:	b8 17 00 00 00       	mov    $0x17,%eax
 420:	cd 40                	int    $0x40
 422:	c3                   	ret    
 423:	66 90                	xchg   %ax,%ax
 425:	66 90                	xchg   %ax,%ax
 427:	66 90                	xchg   %ax,%ax
 429:	66 90                	xchg   %ax,%ax
 42b:	66 90                	xchg   %ax,%ax
 42d:	66 90                	xchg   %ax,%ax
 42f:	90                   	nop

00000430 <printint>:
 430:	55                   	push   %ebp
 431:	89 e5                	mov    %esp,%ebp
 433:	57                   	push   %edi
 434:	56                   	push   %esi
 435:	53                   	push   %ebx
 436:	83 ec 3c             	sub    $0x3c,%esp
 439:	89 4d c4             	mov    %ecx,-0x3c(%ebp)
 43c:	89 d1                	mov    %edx,%ecx
 43e:	89 45 b8             	mov    %eax,-0x48(%ebp)
 441:	85 d2                	test   %edx,%edx
 443:	0f 89 7f 00 00 00    	jns    4c8 <printint+0x98>
 449:	f6 45 08 01          	testb  $0x1,0x8(%ebp)
 44d:	74 79                	je     4c8 <printint+0x98>
 44f:	c7 45 bc 01 00 00 00 	movl   $0x1,-0x44(%ebp)
 456:	f7 d9                	neg    %ecx
 458:	31 db                	xor    %ebx,%ebx
 45a:	8d 75 d7             	lea    -0x29(%ebp),%esi
 45d:	8d 76 00             	lea    0x0(%esi),%esi
 460:	89 c8                	mov    %ecx,%eax
 462:	31 d2                	xor    %edx,%edx
 464:	89 cf                	mov    %ecx,%edi
 466:	f7 75 c4             	divl   -0x3c(%ebp)
 469:	0f b6 92 30 09 00 00 	movzbl 0x930(%edx),%edx
 470:	89 45 c0             	mov    %eax,-0x40(%ebp)
 473:	89 d8                	mov    %ebx,%eax
 475:	8d 5b 01             	lea    0x1(%ebx),%ebx
 478:	8b 4d c0             	mov    -0x40(%ebp),%ecx
 47b:	88 14 1e             	mov    %dl,(%esi,%ebx,1)
 47e:	39 7d c4             	cmp    %edi,-0x3c(%ebp)
 481:	76 dd                	jbe    460 <printint+0x30>
 483:	8b 4d bc             	mov    -0x44(%ebp),%ecx
 486:	85 c9                	test   %ecx,%ecx
 488:	74 0c                	je     496 <printint+0x66>
 48a:	c6 44 1d d8 2d       	movb   $0x2d,-0x28(%ebp,%ebx,1)
 48f:	89 d8                	mov    %ebx,%eax
 491:	ba 2d 00 00 00       	mov    $0x2d,%edx
 496:	8b 7d b8             	mov    -0x48(%ebp),%edi
 499:	8d 5c 05 d7          	lea    -0x29(%ebp,%eax,1),%ebx
 49d:	eb 07                	jmp    4a6 <printint+0x76>
 49f:	90                   	nop
 4a0:	0f b6 13             	movzbl (%ebx),%edx
 4a3:	83 eb 01             	sub    $0x1,%ebx
 4a6:	83 ec 04             	sub    $0x4,%esp
 4a9:	88 55 d7             	mov    %dl,-0x29(%ebp)
 4ac:	6a 01                	push   $0x1
 4ae:	56                   	push   %esi
 4af:	57                   	push   %edi
 4b0:	e8 de fe ff ff       	call   393 <write>
 4b5:	83 c4 10             	add    $0x10,%esp
 4b8:	39 de                	cmp    %ebx,%esi
 4ba:	75 e4                	jne    4a0 <printint+0x70>
 4bc:	8d 65 f4             	lea    -0xc(%ebp),%esp
 4bf:	5b                   	pop    %ebx
 4c0:	5e                   	pop    %esi
 4c1:	5f                   	pop    %edi
 4c2:	5d                   	pop    %ebp
 4c3:	c3                   	ret    
 4c4:	8d 74 26 00          	lea    0x0(%esi,%eiz,1),%esi
 4c8:	c7 45 bc 00 00 00 00 	movl   $0x0,-0x44(%ebp)
 4cf:	eb 87                	jmp    458 <printint+0x28>
 4d1:	8d b4 26 00 00 00 00 	lea    0x0(%esi,%eiz,1),%esi
 4d8:	8d b4 26 00 00 00 00 	lea    0x0(%esi,%eiz,1),%esi
 4df:	90                   	nop

000004e0 <printf>:
 4e0:	55                   	push   %ebp
 4e1:	89 e5                	mov    %esp,%ebp
 4e3:	57                   	push   %edi
 4e4:	56                   	push   %esi
 4e5:	53                   	push   %ebx
 4e6:	83 ec 2c             	sub    $0x2c,%esp
 4e9:	8b 5d 0c             	mov    0xc(%ebp),%ebx
 4ec:	8b 75 08             	mov    0x8(%ebp),%esi
 4ef:	0f b6 13             	movzbl (%ebx),%edx
 4f2:	84 d2                	test   %dl,%dl
 4f4:	74 6a                	je     560 <printf+0x80>
 4f6:	8d 45 10             	lea    0x10(%ebp),%eax
 4f9:	83 c3 01             	add    $0x1,%ebx
 4fc:	8d 7d e7             	lea    -0x19(%ebp),%edi
 4ff:	31 c9                	xor    %ecx,%ecx
 501:	89 45 d0             	mov    %eax,-0x30(%ebp)
 504:	eb 36                	jmp    53c <printf+0x5c>
 506:	8d b4 26 00 00 00 00 	lea    0x0(%esi,%eiz,1),%esi
 50d:	8d 76 00             	lea    0x0(%esi),%esi
 510:	89 4d d4             	mov    %ecx,-0x2c(%ebp)
 513:	b9 25 00 00 00       	mov    $0x25,%ecx
 518:	83 f8 25             	cmp    $0x25,%eax
 51b:	74 15                	je     532 <printf+0x52>
 51d:	83 ec 04             	sub    $0x4,%esp
 520:	88 55 e7             	mov    %dl,-0x19(%ebp)
 523:	6a 01                	push   $0x1
 525:	57                   	push   %edi
 526:	56                   	push   %esi
 527:	e8 67 fe ff ff       	call   393 <write>
 52c:	8b 4d d4             	mov    -0x2c(%ebp),%ecx
 52f:	83 c4 10             	add    $0x10,%esp
 532:	0f b6 13             	movzbl (%ebx),%edx
 535:	83 c3 01             	add    $0x1,%ebx
 538:	84 d2                	test   %dl,%dl
 53a:	74 24                	je     560 <printf+0x80>
 53c:	0f b6 c2             	movzbl %dl,%eax
 53f:	85 c9                	test   %ecx,%ecx
 541:	74 cd                	je     510 <printf+0x30>
 543:	83 f9 25             	cmp    $0x25,%ecx
 546:	75 ea                	jne    532 <printf+0x52>
 548:	83 f8 25             	cmp    $0x25,%eax
 54b:	0f 84 07 01 00 00    	je     658 <printf+0x178>
 551:	83 e8 63             	sub    $0x63,%eax
 554:	83 f8 15             	cmp    $0x15,%eax
 557:	77 17                	ja     570 <printf+0x90>
 559:	ff 24 85 d8 08 00 00 	jmp    *0x8d8(,%eax,4)
 560:	8d 65 f4             	lea    -0xc(%ebp),%esp
 563:	5b                   	pop    %ebx
 564:	5e                   	pop    %esi
 565:	5f                   	pop    %edi
 566:	5d                   	pop    %ebp
 567:	c3                   	ret    
 568:	8d b4 26 00 00 00 00 	lea    0x0(%esi,%eiz,1),%esi
 56f:	90                   	nop
 570:	83 ec 04             	sub    $0x4,%esp
 573:	88 55 d4             	mov    %dl,-0x2c(%ebp)
 576:	6a 01                	push   $0x1
 578:	57                   	push   %edi
 579:	56                   	push   %esi
 57a:	c6 45 e7 25          	movb   $0x25,-0x19(%ebp)
 57e:	e8 10 fe ff ff       	call   393 <write>
 583:	0f b6 55 d4          	movzbl -0x2c(%ebp),%edx
 587:	83 c4 0c             	add    $0xc,%esp
 58a:	88 55 e7             	mov    %dl,-0x19(%ebp)
 58d:	6a 01                	push   $0x1
 58f:	57                   	push   %edi
 590:	56                   	push   %esi
 591:	e8 fd fd ff ff       	call   393 <write>
 596:	83 c4 10             	add    $0x10,%esp
 599:	31 c9                	xor    %ecx,%ecx
 59b:	eb 95                	jmp    532 <printf+0x52>
 59d:	8d 76 00             	lea    0x0(%esi),%esi
 5a0:	83 ec 0c             	sub    $0xc,%esp
 5a3:	b9 10 00 00 00       	mov    $0x10,%ecx
 5a8:	6a 00                	push   $0x0
 5aa:	8b 45 d0             	mov    -0x30(%ebp),%eax
 5ad:	8b 10                	mov    (%eax),%edx
 5af:	89 f0                	mov    %esi,%eax
 5b1:	e8 7a fe ff ff       	call   430 <printint>
 5b6:	83 45 d0 04          	addl   $0x4,-0x30(%ebp)
 5ba:	83 c4 10             	add    $0x10,%esp
 5bd:	31 c9                	xor    %ecx,%ecx
 5bf:	e9 6e ff ff ff       	jmp    532 <printf+0x52>
 5c4:	8d 74 26 00          	lea    0x0(%esi,%eiz,1),%esi
 5c8:	8b 45 d0             	mov    -0x30(%ebp),%eax
 5cb:	8b 10                	mov    (%eax),%edx
 5cd:	83 c0 04             	add    $0x4,%eax
 5d0:	89 45 d0             	mov    %eax,-0x30(%ebp)
 5d3:	85 d2                	test   %edx,%edx
 5d5:	0f 84 8d 00 00 00    	je     668 <printf+0x188>
 5db:	0f b6 02             	movzbl (%edx),%eax
 5de:	31 c9                	xor    %ecx,%ecx
 5e0:	84 c0                	test   %al,%al
 5e2:	0f 84 4a ff ff ff    	je     532 <printf+0x52>
 5e8:	89 5d d4             	mov    %ebx,-0x2c(%ebp)
 5eb:	89 d3                	mov    %edx,%ebx
 5ed:	8d 76 00             	lea    0x0(%esi),%esi
 5f0:	83 ec 04             	sub    $0x4,%esp
 5f3:	83 c3 01             	add    $0x1,%ebx
 5f6:	88 45 e7             	mov    %al,-0x19(%ebp)
 5f9:	6a 01                	push   $0x1
 5fb:	57                   	push   %edi
 5fc:	56                   	push   %esi
 5fd:	e8 91 fd ff ff       	call   393 <write>
 602:	0f b6 03             	movzbl (%ebx),%eax
 605:	83 c4 10             	add    $0x10,%esp
 608:	84 c0                	test   %al,%al
 60a:	75 e4                	jne    5f0 <printf+0x110>
 60c:	8b 5d d4             	mov    -0x2c(%ebp),%ebx
 60f:	31 c9                	xor    %ecx,%ecx
 611:	e9 1c ff ff ff       	jmp    532 <printf+0x52>
 616:	8d b4 26 00 00 00 00 	lea    0x0(%esi,%eiz,1),%esi
 61d:	8d 76 00             	lea    0x0(%esi),%esi
 620:	83 ec 0c             	sub    $0xc,%esp
 623:	b9 0a 00 00 00       	mov    $0xa,%ecx
 628:	6a 01                	push   $0x1
 62a:	e9 7b ff ff ff       	jmp    5aa <printf+0xca>
 62f:	90                   	nop
 630:	8b 45 d0             	mov    -0x30(%ebp),%eax
 633:	83 ec 04             	sub    $0x4,%esp
 636:	8b 00                	mov    (%eax),%eax
 638:	6a 01                	push   $0x1
 63a:	57                   	push   %edi
 63b:	56                   	push   %esi
 63c:	88 45 e7             	mov    %al,-0x19(%ebp)
 63f:	e8 4f fd ff ff       	call   393 <write>
 644:	83 45 d0 04          	addl   $0x4,-0x30(%ebp)
 648:	83 c4 10             	add    $0x10,%esp
 64b:	31 c9                	xor    %ecx,%ecx
 64d:	e9 e0 fe ff ff       	jmp    532 <printf+0x52>
 652:	8d b6 00 00 00 00    	lea    0x0(%esi),%esi
 658:	88 55 e7             	mov    %dl,-0x19(%ebp)
 65b:	83 ec 04             	sub    $0x4,%esp
 65e:	e9 2a ff ff ff       	jmp    58d <printf+0xad>
 663:	8d 74 26 00          	lea    0x0(%esi,%eiz,1),%esi
 667:	90                   	nop
 668:	ba ce 08 00 00       	mov    $0x8ce,%edx
 66d:	89 5d d4             	mov    %ebx,-0x2c(%ebp)
 670:	b8 28 00 00 00       	mov    $0x28,%eax
 675:	89 d3                	mov    %edx,%ebx
 677:	e9 74 ff ff ff       	jmp    5f0 <printf+0x110>
 67c:	66 90                	xchg   %ax,%ax
 67e:	66 90                	xchg   %ax,%ax

00000680 <free>:
 680:	55                   	push   %ebp
 681:	a1 e0 0b 00 00       	mov    0xbe0,%eax
 686:	89 e5                	mov    %esp,%ebp
 688:	57                   	push   %edi
 689:	56                   	push   %esi
 68a:	53                   	push   %ebx
 68b:	8b 5d 08             	mov    0x8(%ebp),%ebx
 68e:	8d 4b f8             	lea    -0x8(%ebx),%ecx
 691:	8d b4 26 00 00 00 00 	lea    0x0(%esi,%eiz,1),%esi
 698:	89 c2                	mov    %eax,%edx
 69a:	8b 00                	mov    (%eax),%eax
 69c:	39 ca                	cmp    %ecx,%edx
 69e:	73 30                	jae    6d0 <free+0x50>
 6a0:	39 c1                	cmp    %eax,%ecx
 6a2:	72 04                	jb     6a8 <free+0x28>
 6a4:	39 c2                	cmp    %eax,%edx
 6a6:	72 f0                	jb     698 <free+0x18>
 6a8:	8b 73 fc             	mov    -0x4(%ebx),%esi
 6ab:	8d 3c f1             	lea    (%ecx,%esi,8),%edi
 6ae:	39 f8                	cmp    %edi,%eax
 6b0:	74 30                	je     6e2 <free+0x62>
 6b2:	89 43 f8             	mov    %eax,-0x8(%ebx)
 6b5:	8b 42 04             	mov    0x4(%edx),%eax
 6b8:	8d 34 c2             	lea    (%edx,%eax,8),%esi
 6bb:	39 f1                	cmp    %esi,%ecx
 6bd:	74 3a                	je     6f9 <free+0x79>
 6bf:	89 0a                	mov    %ecx,(%edx)
 6c1:	5b                   	pop    %ebx
 6c2:	89 15 e0 0b 00 00    	mov    %edx,0xbe0
 6c8:	5e                   	pop    %esi
 6c9:	5f                   	pop    %edi
 6ca:	5d                   	pop    %ebp
 6cb:	c3                   	ret    
 6cc:	8d 74 26 00          	lea    0x0(%esi,%eiz,1),%esi
 6d0:	39 c2                	cmp    %eax,%edx
 6d2:	72 c4                	jb     698 <free+0x18>
 6d4:	39 c1                	cmp    %eax,%ecx
 6d6:	73 c0                	jae    698 <free+0x18>
 6d8:	8b 73 fc             	mov    -0x4(%ebx),%esi
 6db:	8d 3c f1             	lea    (%ecx,%esi,8),%edi
 6de:	39 f8                	cmp    %edi,%eax
 6e0:	75 d0                	jne    6b2 <free+0x32>
 6e2:	03 70 04             	add    0x4(%eax),%esi
 6e5:	89 73 fc             	mov    %esi,-0x4(%ebx)
 6e8:	8b 02                	mov    (%edx),%eax
 6ea:	8b 00                	mov    (%eax),%eax
 6ec:	89 43 f8             	mov    %eax,-0x8(%ebx)
 6ef:	8b 42 04             	mov    0x4(%edx),%eax
 6f2:	8d 34 c2             	lea    (%edx,%eax,8),%esi
 6f5:	39 f1                	cmp    %esi,%ecx
 6f7:	75 c6                	jne    6bf <free+0x3f>
 6f9:	03 43 fc             	add    -0x4(%ebx),%eax
 6fc:	89 15 e0 0b 00 00    	mov    %edx,0xbe0
 702:	89 42 04             	mov    %eax,0x4(%edx)
 705:	8b 4b f8             	mov    -0x8(%ebx),%ecx
 708:	89 0a                	mov    %ecx,(%edx)
 70a:	5b                   	pop    %ebx
 70b:	5e                   	pop    %esi
 70c:	5f                   	pop    %edi
 70d:	5d                   	pop    %ebp
 70e:	c3                   	ret    
 70f:	90                   	nop

00000710 <malloc>:
 710:	55                   	push   %ebp
 711:	89 e5                	mov    %esp,%ebp
 713:	57                   	push   %edi
 714:	56                   	push   %esi
 715:	53                   	push   %ebx
 716:	83 ec 1c             	sub    $0x1c,%esp
 719:	8b 45 08             	mov    0x8(%ebp),%eax
 71c:	8b 3d e0 0b 00 00    	mov    0xbe0,%edi
 722:	8d 70 07             	lea    0x7(%eax),%esi
 725:	c1 ee 03             	shr    $0x3,%esi
 728:	83 c6 01             	add    $0x1,%esi
 72b:	85 ff                	test   %edi,%edi
 72d:	0f 84 9d 00 00 00    	je     7d0 <malloc+0xc0>
 733:	8b 17                	mov    (%edi),%edx
 735:	8b 4a 04             	mov    0x4(%edx),%ecx
 738:	39 f1                	cmp    %esi,%ecx
 73a:	73 6a                	jae    7a6 <malloc+0x96>
 73c:	bb 00 10 00 00       	mov    $0x1000,%ebx
 741:	39 de                	cmp    %ebx,%esi
 743:	0f 43 de             	cmovae %esi,%ebx
 746:	8d 04 dd 00 00 00 00 	lea    0x0(,%ebx,8),%eax
 74d:	89 45 e4             	mov    %eax,-0x1c(%ebp)
 750:	eb 17                	jmp    769 <malloc+0x59>
 752:	8d b6 00 00 00 00    	lea    0x0(%esi),%esi
 758:	8b 02                	mov    (%edx),%eax
 75a:	8b 48 04             	mov    0x4(%eax),%ecx
 75d:	39 f1                	cmp    %esi,%ecx
 75f:	73 4f                	jae    7b0 <malloc+0xa0>
 761:	8b 3d e0 0b 00 00    	mov    0xbe0,%edi
 767:	89 c2                	mov    %eax,%edx
 769:	39 d7                	cmp    %edx,%edi
 76b:	75 eb                	jne    758 <malloc+0x48>
 76d:	83 ec 0c             	sub    $0xc,%esp
 770:	ff 75 e4             	push   -0x1c(%ebp)
 773:	e8 83 fc ff ff       	call   3fb <sbrk>
 778:	83 c4 10             	add    $0x10,%esp
 77b:	83 f8 ff             	cmp    $0xffffffff,%eax
 77e:	74 1c                	je     79c <malloc+0x8c>
 780:	89 58 04             	mov    %ebx,0x4(%eax)
 783:	83 ec 0c             	sub    $0xc,%esp
 786:	83 c0 08             	add    $0x8,%eax
 789:	50                   	push   %eax
 78a:	e8 f1 fe ff ff       	call   680 <free>
 78f:	8b 15 e0 0b 00 00    	mov    0xbe0,%edx
 795:	83 c4 10             	add    $0x10,%esp
 798:	85 d2                	test   %edx,%edx
 79a:	75 bc                	jne    758 <malloc+0x48>
 79c:	8d 65 f4             	lea    -0xc(%ebp),%esp
 79f:	31 c0                	xor    %eax,%eax
 7a1:	5b                   	pop    %ebx
 7a2:	5e                   	pop    %esi
 7a3:	5f                   	pop    %edi
 7a4:	5d                   	pop    %ebp
 7a5:	c3                   	ret    
 7a6:	89 d0                	mov    %edx,%eax
 7a8:	89 fa                	mov    %edi,%edx
 7aa:	8d b6 00 00 00 00    	lea    0x0(%esi),%esi
 7b0:	39 ce                	cmp    %ecx,%esi
 7b2:	74 4c                	je     800 <malloc+0xf0>
 7b4:	29 f1                	sub    %esi,%ecx
 7b6:	89 48 04             	mov    %ecx,0x4(%eax)
 7b9:	8d 04 c8             	lea    (%eax,%ecx,8),%eax
 7bc:	89 70 04             	mov    %esi,0x4(%eax)
 7bf:	89 15 e0 0b 00 00    	mov    %edx,0xbe0
 7c5:	8d 65 f4             	lea    -0xc(%ebp),%esp
 7c8:	83 c0 08             	add    $0x8,%eax
 7cb:	5b                   	pop    %ebx
 7cc:	5e                   	pop    %esi
 7cd:	5f                   	pop    %edi
 7ce:	5d                   	pop    %ebp
 7cf:	c3                   	ret    
 7d0:	c7 05 e0 0b 00 00 e4 	movl   $0xbe4,0xbe0
 7d7:	0b 00 00 
 7da:	bf e4 0b 00 00       	mov    $0xbe4,%edi
 7df:	c7 05 e4 0b 00 00 e4 	movl   $0xbe4,0xbe4
 7e6:	0b 00 00 
 7e9:	89 fa                	mov    %edi,%edx
 7eb:	c7 05 e8 0b 00 00 00 	movl   $0x0,0xbe8
 7f2:	00 00 00 
 7f5:	e9 42 ff ff ff       	jmp    73c <malloc+0x2c>
 7fa:	8d b6 00 00 00 00    	lea    0x0(%esi),%esi
 800:	8b 08                	mov    (%eax),%ecx
 802:	89 0a                	mov    %ecx,(%edx)
 804:	eb b9                	jmp    7bf <malloc+0xaf>
